(lp1
(lp2
I12
aI0
aI5
aI0
aa(lp3
I0
aI0
aI0
aI0
aa(lp4
I8
aI0
aI6
aI0
aa(lp5
I2
aI0
aI1
aI0
aa(lp6
I7
aI0
aI3
aI0
aa(lp7
I2
aI0
aI2
aI0
aa(lp8
I9
aI0
aI5
aI0
aa(lp9
I0
aI0
aI0
aI0
aa(lp10
I5
aI0
aI3
aI0
aa(lp11
I5
aI0
aI4
aI0
aa(lp12
I1
aI0
aI3
aI0
aa(lp13
I0
aI0
aI0
aI0
aa(lp14
I7
aI0
aI5
aI0
aa(lp15
I7
aI0
aI4
aI0
aa(lp16
I0
aI0
aI0
aI0
aa(lp17
I4
aI0
aI3
aI0
aa(lp18
I12
aI0
aI5
aI0
aa(lp19
I9
aI0
aI4
aI0
aa(lp20
I12
aI0
aI5
aI0
aa(lp21
I5
aI0
aI2
aI0
aa(lp22
I7
aI0
aI2
aI0
aa(lp23
I2
aI0
aI1
aI0
aa(lp24
I6
aI0
aI3
aI0
aa(lp25
I11
aI0
aI4
aI0
aa(lp26
I2
aI0
aI2
aI0
aa(lp27
I7
aI0
aI4
aI0
aa(lp28
I14
aI0
aI6
aI0
aa(lp29
I33
aI0
aI13
aI0
aa(lp30
I8
aI0
aI5
aI0
aa(lp31
I9
aI0
aI4
aI0
aa(lp32
I7
aI0
aI3
aI0
aa(lp33
I2
aI0
aI1
aI0
aa(lp34
I7
aI0
aI3
aI0
aa(lp35
I9
aI0
aI4
aI0
aa(lp36
I1
aI0
aI1
aI0
aa(lp37
I0
aI0
aI0
aI0
aa(lp38
I10
aI0
aI4
aI0
aa(lp39
I0
aI0
aI0
aI0
aa(lp40
I7
aI0
aI4
aI0
aa(lp41
I10
aI0
aI6
aI0
aa(lp42
I20
aI0
aI8
aI1
aa(lp43
I0
aI0
aI0
aI0
aa(lp44
I0
aI0
aI0
aI0
aa(lp45
I10
aI0
aI4
aI0
aa(lp46
I0
aI0
aI0
aI0
aa(lp47
I9
aI0
aI4
aI0
aa(lp48
I0
aI0
aI0
aI0
aa(lp49
I8
aI0
aI6
aI0
aa(lp50
I0
aI0
aI0
aI0
aa(lp51
I2
aI0
aI1
aI0
aa(lp52
I4
aI0
aI2
aI0
aa(lp53
I11
aI0
aI5
aI0
aa(lp54
I4
aI0
aI4
aI0
aa(lp55
I3
aI0
aI4
aI0
aa(lp56
I6
aI0
aI2
aI0
aa(lp57
I8
aI0
aI3
aI0
aa(lp58
I1
aI0
aI1
aI0
aa(lp59
I6
aI0
aI4
aI0
aa(lp60
I11
aI0
aI4
aI0
aa(lp61
I18
aI0
aI8
aI0
aa(lp62
I5
aI0
aI2
aI0
aa(lp63
I7
aI0
aI4
aI0
aa(lp64
I1
aI0
aI2
aI0
aa(lp65
I6
aI0
aI3
aI0
aa(lp66
I6
aI0
aI4
aI0
aa(lp67
I3
aI0
aI2
aI0
aa(lp68
I0
aI0
aI0
aI0
aa(lp69
I4
aI0
aI2
aI0
aa(lp70
I0
aI0
aI0
aI0
aa(lp71
I7
aI0
aI4
aI0
aa(lp72
I11
aI0
aI5
aI0
aa(lp73
I2
aI0
aI1
aI0
aa(lp74
I6
aI0
aI4
aI0
aa(lp75
I13
aI0
aI6
aI0
aa(lp76
I12
aI0
aI7
aI0
aa(lp77
I6
aI0
aI3
aI0
aa.